target datalayout = "e-m:e-p270:32:32-p271:32:32-p272:64:64-i64:64-i128:128-f80:128-n8:16:32:64-S128"
target triple = "x86_64-pc-linux-gnu"

%struct.UDataInfo = type { i16, i16, i8, i8, i8, i8, [4 x i8], [4 x i8], [4 x i8] }
%struct.UDataSwapper = type { i8, i8, i8, i8, ptr, ptr, ptr, ptr, ptr, ptr, ptr, ptr, ptr, ptr, ptr }

@.str.1 = private unnamed_addr constant [94 x i8] c"ucnvsel_swap(): data format %02x.%02x.%02x.%02x is not recognized as UConverterSelector data\0A\00", align 1
@.str.2 = private unnamed_addr constant [54 x i8] c"ucnvsel_swap(): format version %02x is not supported\0A\00", align 1
@.str.3 = private unnamed_addr constant [77 x i8] c"ucnvsel_swap(): too few bytes (%d after header) for UConverterSelector data\0A\00", align 1
@.str.4 = private unnamed_addr constant [84 x i8] c"ucnvsel_swap(): too few bytes (%d after header) for all of UConverterSelector data\0A\00", align 1

; Function Attrs: inlinehint mustprogress nounwind uwtable
define internal noundef signext i8 @_ZL9U_FAILURE10UErrorCode(i32 noundef %0) #1 {
  %2 = alloca i32, align 4
  store i32 %0, ptr %2, align 4, !tbaa !16
  %3 = load i32, ptr %2, align 4, !tbaa !16
  %4 = icmp sgt i32 %3, 0
  %5 = zext i1 %4 to i8
  ret i8 %5
}

; Function Attrs: mustprogress uwtable
define internal noundef i32 @_ZL12ucnvsel_swapPK12UDataSwapperPKviPvP10UErrorCode(ptr noundef %0, ptr noundef %1, i32 noundef %2, ptr noundef %3, ptr noundef %4) #0 {
  %6 = alloca i32, align 4
  %7 = alloca ptr, align 8
  %8 = alloca ptr, align 8
  %9 = alloca i32, align 4
  %10 = alloca ptr, align 8
  %11 = alloca ptr, align 8
  %12 = alloca i32, align 4
  %13 = alloca i32, align 4
  %14 = alloca ptr, align 8
  %15 = alloca ptr, align 8
  %16 = alloca ptr, align 8
  %17 = alloca ptr, align 8
  %18 = alloca [16 x i32], align 16
  %19 = alloca i32, align 4
  %20 = alloca i32, align 4
  %21 = alloca i32, align 4
  %22 = alloca i32, align 4
  store ptr %0, ptr %7, align 8, !tbaa !63
  store ptr %1, ptr %8, align 8, !tbaa !15
  store i32 %2, ptr %9, align 4, !tbaa !9
  store ptr %3, ptr %10, align 8, !tbaa !15
  store ptr %4, ptr %11, align 8, !tbaa !15
  call void @llvm.lifetime.start.p0(i64 4, ptr %12) #11
  %23 = load ptr, ptr %7, align 8, !tbaa !63
  %24 = load ptr, ptr %8, align 8, !tbaa !15
  %25 = load i32, ptr %9, align 4, !tbaa !9
  %26 = load ptr, ptr %10, align 8, !tbaa !15
  %27 = load ptr, ptr %11, align 8, !tbaa !15
  %28 = call i32 @udata_swapDataHeader_77(ptr noundef %23, ptr noundef %24, i32 noundef %25, ptr noundef %26, ptr noundef %27)
  store i32 %28, ptr %12, align 4, !tbaa !9
  %29 = load ptr, ptr %11, align 8, !tbaa !15
  %30 = load i32, ptr %29, align 4, !tbaa !16
  %31 = call noundef signext i8 @_ZL9U_FAILURE10UErrorCode(i32 noundef %30)
  %32 = icmp ne i8 %31, 0
  br i1 %32, label %33, label %34

33:                                               ; preds = %5
  store i32 0, ptr %6, align 4
  store i32 1, ptr %13, align 4
  br label %245

34:                                               ; preds = %5
  call void @llvm.lifetime.start.p0(i64 8, ptr %14) #11
  %35 = load ptr, ptr %8, align 8, !tbaa !15
  %36 = getelementptr inbounds i8, ptr %35, i64 4
  store ptr %36, ptr %14, align 8, !tbaa !15
  %37 = load ptr, ptr %14, align 8, !tbaa !15
  %38 = getelementptr inbounds nuw %struct.UDataInfo, ptr %37, i32 0, i32 6
  %39 = getelementptr inbounds [4 x i8], ptr %38, i64 0, i64 0
  %40 = load i8, ptr %39, align 2, !tbaa !28
  %41 = zext i8 %40 to i32
  %42 = icmp eq i32 %41, 67
  br i1 %42, label %43, label %64

43:                                               ; preds = %34
  %44 = load ptr, ptr %14, align 8, !tbaa !15
  %45 = getelementptr inbounds nuw %struct.UDataInfo, ptr %44, i32 0, i32 6
  %46 = getelementptr inbounds [4 x i8], ptr %45, i64 0, i64 1
  %47 = load i8, ptr %46, align 1, !tbaa !28
  %48 = zext i8 %47 to i32
  %49 = icmp eq i32 %48, 83
  br i1 %49, label %50, label %64

50:                                               ; preds = %43
  %51 = load ptr, ptr %14, align 8, !tbaa !15
  %52 = getelementptr inbounds nuw %struct.UDataInfo, ptr %51, i32 0, i32 6
  %53 = getelementptr inbounds [4 x i8], ptr %52, i64 0, i64 2
  %54 = load i8, ptr %53, align 2, !tbaa !28
  %55 = zext i8 %54 to i32
  %56 = icmp eq i32 %55, 101
  br i1 %56, label %57, label %64

57:                                               ; preds = %50
  %58 = load ptr, ptr %14, align 8, !tbaa !15
  %59 = getelementptr inbounds nuw %struct.UDataInfo, ptr %58, i32 0, i32 6
  %60 = getelementptr inbounds [4 x i8], ptr %59, i64 0, i64 3
  %61 = load i8, ptr %60, align 1, !tbaa !28
  %62 = zext i8 %61 to i32
  %63 = icmp eq i32 %62, 108
  br i1 %63, label %87, label %64

64:                                               ; preds = %57, %50, %43, %34
  %65 = load ptr, ptr %7, align 8, !tbaa !63
  %66 = load ptr, ptr %14, align 8, !tbaa !15
  %67 = getelementptr inbounds nuw %struct.UDataInfo, ptr %66, i32 0, i32 6
  %68 = getelementptr inbounds [4 x i8], ptr %67, i64 0, i64 0
  %69 = load i8, ptr %68, align 2, !tbaa !28
  %70 = zext i8 %69 to i32
  %71 = load ptr, ptr %14, align 8, !tbaa !15
  %72 = getelementptr inbounds nuw %struct.UDataInfo, ptr %71, i32 0, i32 6
  %73 = getelementptr inbounds [4 x i8], ptr %72, i64 0, i64 1
  %74 = load i8, ptr %73, align 1, !tbaa !28
  %75 = zext i8 %74 to i32
  %76 = load ptr, ptr %14, align 8, !tbaa !15
  %77 = getelementptr inbounds nuw %struct.UDataInfo, ptr %76, i32 0, i32 6
  %78 = getelementptr inbounds [4 x i8], ptr %77, i64 0, i64 2
  %79 = load i8, ptr %78, align 2, !tbaa !28
  %80 = zext i8 %79 to i32
  %81 = load ptr, ptr %14, align 8, !tbaa !15
  %82 = getelementptr inbounds nuw %struct.UDataInfo, ptr %81, i32 0, i32 6
  %83 = getelementptr inbounds [4 x i8], ptr %82, i64 0, i64 3
  %84 = load i8, ptr %83, align 1, !tbaa !28
  %85 = zext i8 %84 to i32
  call void (ptr, ptr, ...) @udata_printError_77(ptr noundef %65, ptr noundef @.str.1, i32 noundef %70, i32 noundef %75, i32 noundef %80, i32 noundef %85)
  %86 = load ptr, ptr %11, align 8, !tbaa !15
  store i32 3, ptr %86, align 4, !tbaa !16
  store i32 0, ptr %6, align 4
  store i32 1, ptr %13, align 4
  br label %244

87:                                               ; preds = %57
  %88 = load ptr, ptr %14, align 8, !tbaa !15
  %89 = getelementptr inbounds nuw %struct.UDataInfo, ptr %88, i32 0, i32 7
  %90 = getelementptr inbounds [4 x i8], ptr %89, i64 0, i64 0
  %91 = load i8, ptr %90, align 2, !tbaa !28
  %92 = zext i8 %91 to i32
  %93 = icmp ne i32 %92, 1
  br i1 %93, label %94, label %102

94:                                               ; preds = %87
  %95 = load ptr, ptr %7, align 8, !tbaa !63
  %96 = load ptr, ptr %14, align 8, !tbaa !15
  %97 = getelementptr inbounds nuw %struct.UDataInfo, ptr %96, i32 0, i32 7
  %98 = getelementptr inbounds [4 x i8], ptr %97, i64 0, i64 0
  %99 = load i8, ptr %98, align 2, !tbaa !28
  %100 = zext i8 %99 to i32
  call void (ptr, ptr, ...) @udata_printError_77(ptr noundef %95, ptr noundef @.str.2, i32 noundef %100)
  %101 = load ptr, ptr %11, align 8, !tbaa !15
  store i32 16, ptr %101, align 4, !tbaa !16
  store i32 0, ptr %6, align 4
  store i32 1, ptr %13, align 4
  br label %244

102:                                              ; preds = %87
  %103 = load i32, ptr %9, align 4, !tbaa !9
  %104 = icmp sge i32 %103, 0
  br i1 %104, label %105, label %116

105:                                              ; preds = %102
  %106 = load i32, ptr %12, align 4, !tbaa !9
  %107 = load i32, ptr %9, align 4, !tbaa !9
  %108 = sub nsw i32 %107, %106
  store i32 %108, ptr %9, align 4, !tbaa !9
  %109 = load i32, ptr %9, align 4, !tbaa !9
  %110 = icmp slt i32 %109, 64
  br i1 %110, label %111, label %115

111:                                              ; preds = %105
  %112 = load ptr, ptr %7, align 8, !tbaa !63
  %113 = load i32, ptr %9, align 4, !tbaa !9
  call void (ptr, ptr, ...) @udata_printError_77(ptr noundef %112, ptr noundef @.str.3, i32 noundef %113)
  %114 = load ptr, ptr %11, align 8, !tbaa !15
  store i32 8, ptr %114, align 4, !tbaa !16
  store i32 0, ptr %6, align 4
  store i32 1, ptr %13, align 4
  br label %244

115:                                              ; preds = %105
  br label %116

116:                                              ; preds = %115, %102
  call void @llvm.lifetime.start.p0(i64 8, ptr %15) #11
  %117 = load ptr, ptr %8, align 8, !tbaa !15
  %118 = load i32, ptr %12, align 4, !tbaa !9
  %119 = sext i32 %118 to i64
  %120 = getelementptr inbounds i8, ptr %117, i64 %119
  store ptr %120, ptr %15, align 8, !tbaa !23
  call void @llvm.lifetime.start.p0(i64 8, ptr %16) #11
  %121 = load ptr, ptr %10, align 8, !tbaa !15
  %122 = load i32, ptr %12, align 4, !tbaa !9
  %123 = sext i32 %122 to i64
  %124 = getelementptr inbounds i8, ptr %121, i64 %123
  store ptr %124, ptr %16, align 8, !tbaa !23
  call void @llvm.lifetime.start.p0(i64 8, ptr %17) #11
  %125 = load ptr, ptr %15, align 8, !tbaa !23
  store ptr %125, ptr %17, align 8, !tbaa !65
  call void @llvm.lifetime.start.p0(i64 64, ptr %18) #11
  call void @llvm.lifetime.start.p0(i64 4, ptr %19) #11
  store i32 0, ptr %19, align 4, !tbaa !9
  br label %126

126:                                              ; preds = %140, %116
  %127 = load i32, ptr %19, align 4, !tbaa !9
  %128 = icmp slt i32 %127, 16
  br i1 %128, label %129, label %143

129:                                              ; preds = %126
  %130 = load ptr, ptr %7, align 8, !tbaa !63
  %131 = load ptr, ptr %17, align 8, !tbaa !65
  %132 = load i32, ptr %19, align 4, !tbaa !9
  %133 = sext i32 %132 to i64
  %134 = getelementptr inbounds i32, ptr %131, i64 %133
  %135 = load i32, ptr %134, align 4, !tbaa !9
  %136 = call i32 @udata_readInt32_77(ptr noundef %130, i32 noundef %135)
  %137 = load i32, ptr %19, align 4, !tbaa !9
  %138 = sext i32 %137 to i64
  %139 = getelementptr inbounds [16 x i32], ptr %18, i64 0, i64 %138
  store i32 %136, ptr %139, align 4, !tbaa !9
  br label %140

140:                                              ; preds = %129
  %141 = load i32, ptr %19, align 4, !tbaa !9
  %142 = add nsw i32 %141, 1
  store i32 %142, ptr %19, align 4, !tbaa !9
  br label %126, !llvm.loop !67

143:                                              ; preds = %126
  call void @llvm.lifetime.start.p0(i64 4, ptr %20) #11
  %144 = getelementptr inbounds nuw [16 x i32], ptr %18, i64 0, i64 15
  %145 = load i32, ptr %144, align 4, !tbaa !9
  store i32 %145, ptr %20, align 4, !tbaa !9
  %146 = load i32, ptr %9, align 4, !tbaa !9
  %147 = icmp sge i32 %146, 0
  br i1 %147, label %148, label %239

148:                                              ; preds = %143
  %149 = load i32, ptr %9, align 4, !tbaa !9
  %150 = load i32, ptr %20, align 4, !tbaa !9
  %151 = icmp slt i32 %149, %150
  br i1 %151, label %152, label %156

152:                                              ; preds = %148
  %153 = load ptr, ptr %7, align 8, !tbaa !63
  %154 = load i32, ptr %9, align 4, !tbaa !9
  call void (ptr, ptr, ...) @udata_printError_77(ptr noundef %153, ptr noundef @.str.4, i32 noundef %154)
  %155 = load ptr, ptr %11, align 8, !tbaa !15
  store i32 8, ptr %155, align 4, !tbaa !16
  store i32 0, ptr %6, align 4
  store i32 1, ptr %13, align 4
  br label %243

156:                                              ; preds = %148
  %157 = load ptr, ptr %15, align 8, !tbaa !23
  %158 = load ptr, ptr %16, align 8, !tbaa !23
  %159 = icmp ne ptr %157, %158
  br i1 %159, label %160, label %168

160:                                              ; preds = %156
  br label %161

161:                                              ; preds = %160
  %162 = load ptr, ptr %16, align 8, !tbaa !23
  %163 = load ptr, ptr %15, align 8, !tbaa !23
  %164 = load i32, ptr %20, align 4, !tbaa !9
  %165 = sext i32 %164 to i64
  call void @llvm.memcpy.p0.p0.i64(ptr align 1 %162, ptr align 1 %163, i64 %165, i1 false)
  br label %166

166:                                              ; preds = %161
  br label %167

167:                                              ; preds = %166
  br label %168

168:                                              ; preds = %167, %156
  call void @llvm.lifetime.start.p0(i64 4, ptr %21) #11
  store i32 0, ptr %21, align 4, !tbaa !9
  call void @llvm.lifetime.start.p0(i64 4, ptr %22) #11
  store i32 64, ptr %22, align 4, !tbaa !9
  %169 = load ptr, ptr %7, align 8, !tbaa !63
  %170 = getelementptr inbounds nuw %struct.UDataSwapper, ptr %169, i32 0, i32 10
  %171 = load ptr, ptr %170, align 8, !tbaa !68
  %172 = load ptr, ptr %7, align 8, !tbaa !63
  %173 = load ptr, ptr %15, align 8, !tbaa !23
  %174 = load i32, ptr %22, align 4, !tbaa !9
  %175 = load ptr, ptr %16, align 8, !tbaa !23
  %176 = load ptr, ptr %11, align 8, !tbaa !15
  %177 = call noundef i32 %171(ptr noundef %172, ptr noundef %173, i32 noundef %174, ptr noundef %175, ptr noundef %176)
  %178 = load i32, ptr %22, align 4, !tbaa !9
  %179 = load i32, ptr %21, align 4, !tbaa !9
  %180 = add nsw i32 %179, %178
  store i32 %180, ptr %21, align 4, !tbaa !9
  %181 = getelementptr inbounds nuw [16 x i32], ptr %18, i64 0, i64 0
  %182 = load i32, ptr %181, align 16, !tbaa !9
  store i32 %182, ptr %22, align 4, !tbaa !9
  %183 = load ptr, ptr %7, align 8, !tbaa !63
  %184 = load ptr, ptr %15, align 8, !tbaa !23
  %185 = load i32, ptr %21, align 4, !tbaa !9
  %186 = sext i32 %185 to i64
  %187 = getelementptr inbounds i8, ptr %184, i64 %186
  %188 = load i32, ptr %22, align 4, !tbaa !9
  %189 = load ptr, ptr %16, align 8, !tbaa !23
  %190 = load i32, ptr %21, align 4, !tbaa !9
  %191 = sext i32 %190 to i64
  %192 = getelementptr inbounds i8, ptr %189, i64 %191
  %193 = load ptr, ptr %11, align 8, !tbaa !15
  %194 = call i32 @utrie2_swap_77(ptr noundef %183, ptr noundef %187, i32 noundef %188, ptr noundef %192, ptr noundef %193)
  %195 = load i32, ptr %22, align 4, !tbaa !9
  %196 = load i32, ptr %21, align 4, !tbaa !9
  %197 = add nsw i32 %196, %195
  store i32 %197, ptr %21, align 4, !tbaa !9
  %198 = getelementptr inbounds nuw [16 x i32], ptr %18, i64 0, i64 1
  %199 = load i32, ptr %198, align 4, !tbaa !9
  %200 = mul nsw i32 %199, 4
  store i32 %200, ptr %22, align 4, !tbaa !9
  %201 = load ptr, ptr %7, align 8, !tbaa !63
  %202 = getelementptr inbounds nuw %struct.UDataSwapper, ptr %201, i32 0, i32 10
  %203 = load ptr, ptr %202, align 8, !tbaa !68
  %204 = load ptr, ptr %7, align 8, !tbaa !63
  %205 = load ptr, ptr %15, align 8, !tbaa !23
  %206 = load i32, ptr %21, align 4, !tbaa !9
  %207 = sext i32 %206 to i64
  %208 = getelementptr inbounds i8, ptr %205, i64 %207
  %209 = load i32, ptr %22, align 4, !tbaa !9
  %210 = load ptr, ptr %16, align 8, !tbaa !23
  %211 = load i32, ptr %21, align 4, !tbaa !9
  %212 = sext i32 %211 to i64
  %213 = getelementptr inbounds i8, ptr %210, i64 %212
  %214 = load ptr, ptr %11, align 8, !tbaa !15
  %215 = call noundef i32 %203(ptr noundef %204, ptr noundef %208, i32 noundef %209, ptr noundef %213, ptr noundef %214)
  %216 = load i32, ptr %22, align 4, !tbaa !9
  %217 = load i32, ptr %21, align 4, !tbaa !9
  %218 = add nsw i32 %217, %216
  store i32 %218, ptr %21, align 4, !tbaa !9
  %219 = getelementptr inbounds nuw [16 x i32], ptr %18, i64 0, i64 3
  %220 = load i32, ptr %219, align 4, !tbaa !9
  store i32 %220, ptr %22, align 4, !tbaa !9
  %221 = load ptr, ptr %7, align 8, !tbaa !63
  %222 = getelementptr inbounds nuw %struct.UDataSwapper, ptr %221, i32 0, i32 12
  %223 = load ptr, ptr %222, align 8, !tbaa !70
  %224 = load ptr, ptr %7, align 8, !tbaa !63
  %225 = load ptr, ptr %15, align 8, !tbaa !23
  %226 = load i32, ptr %21, align 4, !tbaa !9
  %227 = sext i32 %226 to i64
  %228 = getelementptr inbounds i8, ptr %225, i64 %227
  %229 = load i32, ptr %22, align 4, !tbaa !9
  %230 = load ptr, ptr %16, align 8, !tbaa !23
  %231 = load i32, ptr %21, align 4, !tbaa !9
  %232 = sext i32 %231 to i64
  %233 = getelementptr inbounds i8, ptr %230, i64 %232
  %234 = load ptr, ptr %11, align 8, !tbaa !15
  %235 = call noundef i32 %223(ptr noundef %224, ptr noundef %228, i32 noundef %229, ptr noundef %233, ptr noundef %234)
  %236 = load i32, ptr %22, align 4, !tbaa !9
  %237 = load i32, ptr %21, align 4, !tbaa !9
  %238 = add nsw i32 %237, %236
  store i32 %238, ptr %21, align 4, !tbaa !9
  call void @llvm.lifetime.end.p0(i64 4, ptr %22) #11
  call void @llvm.lifetime.end.p0(i64 4, ptr %21) #11
  br label %239

239:                                              ; preds = %168, %143
  %240 = load i32, ptr %12, align 4, !tbaa !9
  %241 = load i32, ptr %20, align 4, !tbaa !9
  %242 = add nsw i32 %240, %241
  store i32 %242, ptr %6, align 4
  store i32 1, ptr %13, align 4
  br label %243

243:                                              ; preds = %239, %152
  call void @llvm.lifetime.end.p0(i64 4, ptr %20) #11
  call void @llvm.lifetime.end.p0(i64 4, ptr %19) #11
  call void @llvm.lifetime.end.p0(i64 64, ptr %18) #11
  call void @llvm.lifetime.end.p0(i64 8, ptr %17) #11
  call void @llvm.lifetime.end.p0(i64 8, ptr %16) #11
  call void @llvm.lifetime.end.p0(i64 8, ptr %15) #11
  br label %244

244:                                              ; preds = %243, %111, %94, %64
  call void @llvm.lifetime.end.p0(i64 8, ptr %14) #11
  br label %245

245:                                              ; preds = %244, %33
  call void @llvm.lifetime.end.p0(i64 4, ptr %12) #11
  %246 = load i32, ptr %6, align 4
  ret i32 %246
}