; Function Attrs: mustprogress uwtable
define internal fastcc noundef i32 @_ZL12ucnvsel_swapPK12UDataSwapperPKviPvP10UErrorCode(ptr noundef %0, ptr noundef %1, i32 noundef range(i32 -1, -2147483648) %2, ptr noundef %3, ptr noundef %4) unnamed_addr #0 {
  %6 = alloca [16 x i32], align 16
  %7 = tail call i32 @udata_swapDataHeader_77(ptr noundef %0, ptr noundef %1, i32 noundef %2, ptr noundef %3, ptr noundef %4)
  %8 = load i32, ptr %4, align 4, !tbaa !3
  %9 = icmp slt i32 %8, 1
  br i1 %9, label %10, label %93

10:                                               ; preds = %5
  %11 = getelementptr inbounds nuw i8, ptr %1, i64 12
  %12 = load i8, ptr %11, align 2, !tbaa !24
  %13 = icmp eq i8 %12, 67
  %14 = getelementptr inbounds nuw i8, ptr %1, i64 13
  %15 = load i8, ptr %14, align 1, !tbaa !24
  %16 = icmp eq i8 %15, 83
  %or.cond = select i1 %13, i1 %16, i1 false
  br i1 %or.cond, label %17, label %._crit_edge

17:                                               ; preds = %10
  %18 = getelementptr inbounds nuw i8, ptr %1, i64 14
  %19 = load i8, ptr %18, align 2, !tbaa !24
  %20 = icmp eq i8 %19, 101
  br i1 %20, label %21, label %._crit_edge

21:                                               ; preds = %17
  %22 = getelementptr inbounds nuw i8, ptr %1, i64 15
  %23 = load i8, ptr %22, align 1, !tbaa !24
  %24 = icmp eq i8 %23, 108
  br i1 %24, label %34, label %._crit_edge

._crit_edge:                                      ; preds = %10, %21, %17
  %25 = phi i8 [ 83, %21 ], [ 83, %17 ], [ %15, %10 ]
  %26 = zext i8 %12 to i32
  %27 = zext i8 %25 to i32
  %28 = getelementptr inbounds nuw i8, ptr %1, i64 14
  %29 = load i8, ptr %28, align 2, !tbaa !24
  %30 = zext i8 %29 to i32
  %31 = getelementptr inbounds nuw i8, ptr %1, i64 15
  %32 = load i8, ptr %31, align 1, !tbaa !24
  %33 = zext i8 %32 to i32
  tail call void (ptr, ptr, ...) @udata_printError_77(ptr noundef %0, ptr noundef nonnull @.str.1, i32 noundef %26, i32 noundef %27, i32 noundef %30, i32 noundef %33)
  store i32 3, ptr %4, align 4, !tbaa !3
  br label %93

34:                                               ; preds = %21
  %35 = getelementptr inbounds nuw i8, ptr %1, i64 16
  %36 = load i8, ptr %35, align 2, !tbaa !24
  %.not99 = icmp eq i8 %36, 1
  br i1 %.not99, label %39, label %37

37:                                               ; preds = %34
  %38 = zext i8 %36 to i32
  tail call void (ptr, ptr, ...) @udata_printError_77(ptr noundef %0, ptr noundef nonnull @.str.2, i32 noundef %38)
  store i32 16, ptr %4, align 4, !tbaa !3
  br label %93

39:                                               ; preds = %34
  %40 = icmp sgt i32 %2, -1
  br i1 %40, label %41, label %45

41:                                               ; preds = %39
  %42 = sub nsw i32 %2, %7
  %43 = icmp slt i32 %42, 64
  br i1 %43, label %44, label %45

44:                                               ; preds = %41
  tail call void (ptr, ptr, ...) @udata_printError_77(ptr noundef %0, ptr noundef nonnull @.str.3, i32 noundef %42)
  store i32 8, ptr %4, align 4, !tbaa !3
  br label %93

45:                                               ; preds = %41, %39
  %.089 = phi i32 [ %42, %41 ], [ -1, %39 ]
  %46 = sext i32 %7 to i64
  %47 = getelementptr inbounds i8, ptr %1, i64 %46
  call void @llvm.lifetime.start.p0(i64 64, ptr nonnull %6) #15
  br label %48

48:                                               ; preds = %45, %48
  %indvars.iv = phi i64 [ 0, %45 ], [ %indvars.iv.next, %48 ]
  %49 = getelementptr inbounds nuw i32, ptr %47, i64 %indvars.iv
  %50 = load i32, ptr %49, align 4, !tbaa !29
  %51 = tail call i32 @udata_readInt32_77(ptr noundef %0, i32 noundef %50)
  %52 = getelementptr inbounds nuw [16 x i32], ptr %6, i64 0, i64 %indvars.iv
  store i32 %51, ptr %52, align 4, !tbaa !29
  %indvars.iv.next = add nuw nsw i64 %indvars.iv, 1
  %exitcond.not = icmp eq i64 %indvars.iv.next, 16
  br i1 %exitcond.not, label %53, label %48, !llvm.loop !48

53:                                               ; preds = %48
  %54 = getelementptr inbounds i8, ptr %3, i64 %46
  %55 = getelementptr inbounds nuw i8, ptr %6, i64 60
  %56 = load i32, ptr %55, align 4, !tbaa !29
  %57 = icmp sgt i32 %.089, -1
  br i1 %57, label %58, label %90

58:                                               ; preds = %53
  %59 = icmp slt i32 %.089, %56
  br i1 %59, label %60, label %61

60:                                               ; preds = %58
  tail call void (ptr, ptr, ...) @udata_printError_77(ptr noundef %0, ptr noundef nonnull @.str.4, i32 noundef %.089)
  store i32 8, ptr %4, align 4, !tbaa !3
  br label %92

61:                                               ; preds = %58
  %.not100 = icmp eq ptr %1, %3
  br i1 %.not100, label %64, label %62

62:                                               ; preds = %61
  %63 = sext i32 %56 to i64
  tail call void @llvm.memcpy.p0.p0.i64(ptr align 1 %54, ptr nonnull align 1 %47, i64 %63, i1 false)
  br label %64

64:                                               ; preds = %62, %61
  %65 = getelementptr inbounds nuw i8, ptr %0, i64 56
  %66 = load ptr, ptr %65, align 8, !tbaa !49
  %67 = tail call noundef i32 %66(ptr noundef %0, ptr noundef nonnull %47, i32 noundef 64, ptr noundef %54, ptr noundef nonnull %4)
  %68 = load i32, ptr %6, align 16, !tbaa !29
  %69 = getelementptr inbounds nuw i8, ptr %47, i64 64
  %70 = getelementptr inbounds nuw i8, ptr %54, i64 64
  %71 = tail call i32 @utrie2_swap_77(ptr noundef %0, ptr noundef nonnull %69, i32 noundef %68, ptr noundef nonnull %70, ptr noundef nonnull %4)
  %72 = add nsw i32 %68, 64
  %73 = getelementptr inbounds nuw i8, ptr %6, i64 4
  %74 = load i32, ptr %73, align 4, !tbaa !29
  %75 = shl nsw i32 %74, 2
  %76 = load ptr, ptr %65, align 8, !tbaa !49
  %77 = sext i32 %72 to i64
  %78 = getelementptr inbounds i8, ptr %47, i64 %77
  %79 = getelementptr inbounds i8, ptr %54, i64 %77
  %80 = tail call noundef i32 %76(ptr noundef %0, ptr noundef nonnull %78, i32 noundef %75, ptr noundef %79, ptr noundef nonnull %4)
  %81 = add nsw i32 %75, %72
  %82 = getelementptr inbounds nuw i8, ptr %6, i64 12
  %83 = load i32, ptr %82, align 4, !tbaa !29
  %84 = getelementptr inbounds nuw i8, ptr %0, i64 72
  %85 = load ptr, ptr %84, align 8, !tbaa !51
  %86 = sext i32 %81 to i64
  %87 = getelementptr inbounds i8, ptr %47, i64 %86
  %88 = getelementptr inbounds i8, ptr %54, i64 %86
  %89 = tail call noundef i32 %85(ptr noundef %0, ptr noundef nonnull %87, i32 noundef %83, ptr noundef %88, ptr noundef nonnull %4)
  br label %90

90:                                               ; preds = %64, %53
  %91 = add nsw i32 %56, %7
  br label %92

92:                                               ; preds = %90, %60
  %.2 = phi i32 [ 0, %60 ], [ %91, %90 ]
  call void @llvm.lifetime.end.p0(i64 64, ptr nonnull %6) #15
  br label %93

93:                                               ; preds = %._crit_edge, %37, %44, %92, %5
  %.0 = phi i32 [ 0, %5 ], [ 0, %37 ], [ 0, %44 ], [ %.2, %92 ], [ 0, %._crit_edge ]
  ret i32 %.0
}